; Function Attrs: nounwind uwtable
define dso_local void @UnlockRelationOid(i32 noundef %0, i32 noundef %1) local_unnamed_addr #1 {
  %3 = alloca %struct.LOCKTAG, align 4
  call void @llvm.lifetime.start.p0(i64 16, ptr nonnull %3) #8
  %4 = tail call zeroext i1 @IsSharedRelation(i32 noundef %0) #8
  %5 = load i32, ptr @MyDatabaseId, align 4
  %.0.i = select i1 %4, i32 0, i32 %5
  store i32 %.0.i, ptr %3, align 4
  %6 = getelementptr inbounds nuw i8, ptr %3, i64 4
  store i32 %0, ptr %6, align 4
  %7 = getelementptr inbounds nuw i8, ptr %3, i64 8
  store i32 0, ptr %7, align 4
  %8 = getelementptr inbounds nuw i8, ptr %3, i64 12
  store i16 0, ptr %8, align 4
  %9 = getelementptr inbounds nuw i8, ptr %3, i64 14
  store i8 0, ptr %9, align 2
  %10 = getelementptr inbounds nuw i8, ptr %3, i64 15
  store i8 1, ptr %10, align 1
  %11 = call zeroext i1 @LockRelease(ptr noundef nonnull %3, i32 noundef %1, i1 noundef zeroext false) #8
  call void @llvm.lifetime.end.p0(i64 16, ptr nonnull %3) #8
  ret void
}